target datalayout = "e-m:e-p270:32:32-p271:32:32-p272:64:64-i64:64-i128:128-f80:128-n8:16:32:64-S128"
target triple = "x86_64-pc-linux-gnu"

%struct.rb_data_type_struct = type { ptr, %struct.anon.12, ptr, ptr, i64 }
%struct.anon.12 = type { ptr, ptr, ptr, ptr, [1 x ptr] }
%struct.RTypedData = type { %struct.RBasic, ptr, i64, ptr }
%struct.RBasic = type { i64, i64 }
%struct.rb_execarg = type { %union.anon.13, i64, i64, i64, i64, i16, ptr, ptr, i32, i64, i32, i32, i32, i32, i64, i64, i64, i64, i64, i64, i64 }
%union.anon.13 = type { %struct.anon.15 }
%struct.anon.15 = type { i64, i64, i64, i64 }

@rb_eArgError = external global i64, align 8
@exec_arg_data_type = internal constant %struct.rb_data_type_struct { ptr @.str.186, %struct.anon.12 { ptr @mark_exec_arg, ptr inttoptr (i64 -1 to ptr), ptr @memsize_exec_arg, ptr null, [1 x ptr] zeroinitializer }, ptr null, ptr null, i64 3 }, align 8
@.str.12 = private unnamed_addr constant [32 x i8] c"exception option is not allowed\00", align 1

; Function Attrs: inlinehint nounwind sspstrong uwtable
define internal zeroext i1 @RTYPEDDATA_EMBEDDED_P(i64 noundef %0) #1 {
  %2 = alloca i64, align 8
  store i64 %0, ptr %2, align 8, !tbaa !35
  %3 = load i64, ptr %2, align 8, !tbaa !35
  %4 = inttoptr i64 %3 to ptr
  %5 = getelementptr inbounds nuw %struct.RTypedData, ptr %4, i32 0, i32 2
  %6 = load i64, ptr %5, align 8, !tbaa !211
  %7 = and i64 %6, 2
  %8 = icmp ne i64 %7, 0
  ret i1 %8
}

; Function Attrs: inlinehint nounwind sspstrong uwtable
define internal ptr @RTYPEDDATA_GET_DATA(i64 noundef %0) #1 {
  %2 = alloca i64, align 8
  %3 = alloca i64, align 8
  store i64 %0, ptr %2, align 8, !tbaa !35
  call void @llvm.lifetime.start.p0(i64 8, ptr %3) #27
  store i64 32, ptr %3, align 8, !tbaa !35
  %4 = load i64, ptr %2, align 8, !tbaa !35
  %5 = call zeroext i1 @RTYPEDDATA_EMBEDDED_P(i64 noundef %4)
  br i1 %5, label %6, label %10

6:                                                ; preds = %1
  %7 = load i64, ptr %2, align 8, !tbaa !35
  %8 = inttoptr i64 %7 to ptr
  %9 = getelementptr i8, ptr %8, i64 32
  br label %15

10:                                               ; preds = %1
  %11 = load i64, ptr %2, align 8, !tbaa !35
  %12 = inttoptr i64 %11 to ptr
  %13 = getelementptr inbounds nuw %struct.RTypedData, ptr %12, i32 0, i32 3
  %14 = load ptr, ptr %13, align 8, !tbaa !42
  br label %15

15:                                               ; preds = %10, %6
  %16 = phi ptr [ %9, %6 ], [ %14, %10 ]
  call void @llvm.lifetime.end.p0(i64 8, ptr %3) #27
  ret ptr %16
}

; Function Attrs: nounwind sspstrong uwtable
define dso_local i64 @rb_execarg_new(i32 noundef %0, ptr noundef %1, i32 noundef %2, i32 noundef %3) #0 {
  %5 = alloca i32, align 4
  %6 = alloca ptr, align 8
  %7 = alloca i32, align 4
  %8 = alloca i32, align 4
  %9 = alloca i64, align 8
  %10 = alloca ptr, align 8
  %11 = alloca i64, align 8
  %12 = alloca i64, align 8
  store i32 %0, ptr %5, align 4, !tbaa !34
  store ptr %1, ptr %6, align 8, !tbaa !70
  store i32 %2, ptr %7, align 4, !tbaa !34
  store i32 %3, ptr %8, align 4, !tbaa !34
  call void @llvm.lifetime.start.p0(i64 8, ptr %9) #27
  call void @llvm.lifetime.start.p0(i64 8, ptr %10) #27
  call void @llvm.lifetime.start.p0(i64 8, ptr %11) #27
  %13 = call i64 @rb_data_typed_object_zalloc(i64 noundef 0, i64 noundef 176, ptr noundef @exec_arg_data_type)
  store i64 %13, ptr %11, align 8, !tbaa !35
  %14 = load i64, ptr %11, align 8, !tbaa !35
  %15 = call ptr @RTYPEDDATA_GET_DATA(i64 noundef %14)
  store ptr %15, ptr %10, align 8, !tbaa !68
  %16 = load i64, ptr %11, align 8, !tbaa !35
  store i64 %16, ptr %12, align 8, !tbaa !35
  call void @llvm.lifetime.end.p0(i64 8, ptr %11) #27
  %17 = load i64, ptr %12, align 8, !tbaa !35
  store i64 %17, ptr %9, align 8, !tbaa !35
  %18 = load i32, ptr %5, align 4, !tbaa !34
  %19 = load ptr, ptr %6, align 8, !tbaa !70
  %20 = load i32, ptr %7, align 4, !tbaa !34
  %21 = load i64, ptr %9, align 8, !tbaa !35
  %22 = call i64 @rb_execarg_init(i32 noundef %18, ptr noundef %19, i32 noundef %20, i64 noundef %21)
  %23 = load i32, ptr %8, align 4, !tbaa !34
  %24 = icmp ne i32 %23, 0
  br i1 %24, label %35, label %25

25:                                               ; preds = %4
  %26 = load ptr, ptr %10, align 8, !tbaa !68
  %27 = getelementptr inbounds nuw %struct.rb_execarg, ptr %26, i32 0, i32 5
  %28 = load i16, ptr %27, align 8
  %29 = lshr i16 %28, 13
  %30 = and i16 %29, 1
  %31 = zext i16 %30 to i32
  %32 = icmp ne i32 %31, 0
  br i1 %32, label %33, label %35

33:                                               ; preds = %25
  %34 = load i64, ptr @rb_eArgError, align 8, !tbaa !35
  call void (i64, ptr, ...) @rb_raise(i64 noundef %34, ptr noundef @.str.12) #30
  unreachable

35:                                               ; preds = %25, %4
  %36 = load i64, ptr %9, align 8, !tbaa !35
  call void @llvm.lifetime.end.p0(i64 8, ptr %10) #27
  call void @llvm.lifetime.end.p0(i64 8, ptr %9) #27
  ret i64 %36
}

; Function Attrs: nounwind sspstrong uwtable
define internal i32 @rb_spawn_internal(i32 noundef %0, ptr noundef %1, ptr noundef %2, i64 noundef %3) #0 {
  %5 = alloca i32, align 4
  %6 = alloca ptr, align 8
  %7 = alloca ptr, align 8
  %8 = alloca i64, align 8
  %9 = alloca i64, align 8
  store i32 %0, ptr %5, align 4, !tbaa !34
  store ptr %1, ptr %6, align 8, !tbaa !70
  store ptr %2, ptr %7, align 8, !tbaa !64
  store i64 %3, ptr %8, align 8, !tbaa !35
  call void @llvm.lifetime.start.p0(i64 8, ptr %9) #27
  %10 = load i32, ptr %5, align 4, !tbaa !34
  %11 = load ptr, ptr %6, align 8, !tbaa !70
  %12 = call i64 @rb_execarg_new(i32 noundef %10, ptr noundef %11, i32 noundef 1, i32 noundef 0)
  store i64 %12, ptr %9, align 8, !tbaa !35
  %13 = load i64, ptr %9, align 8, !tbaa !35
  %14 = load ptr, ptr %7, align 8, !tbaa !64
  %15 = load i64, ptr %8, align 8, !tbaa !35
  %16 = call i32 @rb_execarg_spawn(i64 noundef %13, ptr noundef %14, i64 noundef %15)
  call void @llvm.lifetime.end.p0(i64 8, ptr %9) #27
  ret i32 %16
}

; Function Attrs: nounwind sspstrong uwtable
define dso_local i32 @rb_spawn_err(i32 noundef %0, ptr noundef %1, ptr noundef %2, i64 noundef %3) #0 {
  %5 = alloca i32, align 4
  %6 = alloca ptr, align 8
  %7 = alloca ptr, align 8
  %8 = alloca i64, align 8
  store i32 %0, ptr %5, align 4, !tbaa !34
  store ptr %1, ptr %6, align 8, !tbaa !70
  store ptr %2, ptr %7, align 8, !tbaa !64
  store i64 %3, ptr %8, align 8, !tbaa !35
  %9 = load i32, ptr %5, align 4, !tbaa !34
  %10 = load ptr, ptr %6, align 8, !tbaa !70
  %11 = load ptr, ptr %7, align 8, !tbaa !64
  %12 = load i64, ptr %8, align 8, !tbaa !35
  %13 = call i32 @rb_spawn_internal(i32 noundef %9, ptr noundef %10, ptr noundef %11, i64 noundef %12)
  ret i32 %13
}