; Function Attrs: nounwind sspstrong uwtable
define dso_local i32 @rb_spawn_err(i32 noundef %0, ptr noundef readonly captures(none) %1, ptr noundef %2, i64 noundef %3) local_unnamed_addr #1 {
  %5 = tail call i64 @rb_data_typed_object_zalloc(i64 noundef 0, i64 noundef 176, ptr noundef nonnull @exec_arg_data_type) #27
  %6 = inttoptr i64 %5 to ptr
  %7 = getelementptr inbounds nuw i8, ptr %6, i64 24
  %8 = load i64, ptr %7, align 8, !tbaa !44
  %9 = and i64 %8, 2
  %.not.i.i.i = icmp eq i64 %9, 0
  %10 = getelementptr i8, ptr %6, i64 32
  br i1 %.not.i.i.i, label %11, label %RTYPEDDATA_GET_DATA.exit.i.i

11:                                               ; preds = %4
  %12 = load ptr, ptr %10, align 8, !tbaa !48
  br label %RTYPEDDATA_GET_DATA.exit.i.i

RTYPEDDATA_GET_DATA.exit.i.i:                     ; preds = %11, %4
  %13 = phi ptr [ %12, %11 ], [ %10, %4 ]
  tail call fastcc void @rb_execarg_init(i32 noundef %0, ptr noundef readonly %1, i32 noundef 1, i64 noundef %5)
  %14 = getelementptr inbounds nuw i8, ptr %13, i64 64
  %15 = load i16, ptr %14, align 8
  %16 = and i16 %15, 8192
  %.not9.i.i = icmp eq i16 %16, 0
  br i1 %.not9.i.i, label %rb_spawn_internal.exit, label %17

17:                                               ; preds = %RTYPEDDATA_GET_DATA.exit.i.i
  %18 = load i64, ptr @rb_eArgError, align 8, !tbaa !43
  tail call void (i64, ptr, ...) @rb_raise(i64 noundef %18, ptr noundef nonnull @.str.12) #29
  unreachable

rb_spawn_internal.exit:                           ; preds = %RTYPEDDATA_GET_DATA.exit.i.i
  %19 = tail call fastcc i32 @rb_execarg_spawn(i64 noundef %5, ptr noundef %2, i64 noundef %3)
  ret i32 %19
}